target datalayout = "e-m:e-p270:32:32-p271:32:32-p272:64:64-i64:64-i128:128-f80:128-n8:16:32:64-S128"
target triple = "x86_64-pc-linux-gnu"

%struct.jit_State = type { %struct.GCtrace, ptr, ptr, ptr, ptr, ptr, ptr, i32, i32, i32, i8, i8, %struct.IRType1, i8, %struct.FoldState, ptr, i32, i32, i32, i32, i32, i32, i32, [1 x i32], [5 x %union.TValue], [3 x %union.TValue], ptr, i32, i32, i32, i32, ptr, ptr, i32, i32, i8, ptr, i32, i32, i16, [101 x i16], [258 x i32], [15 x i32], [16 x ptr], [64 x %struct.HotPenalty], i32, [16 x %struct.BPropEntry], i32, %struct.ScEvEntry, ptr, i32, i32, i32, ptr, i32, i32, ptr, ptr, ptr, i64, i64, %union.TValue, ptr, i32, i32 }
%struct.GCtrace = type { %struct.GCRef, i8, i8, i16, i32, i32, %struct.GCRef, ptr, i32, i32, ptr, ptr, %struct.GCRef, %struct.MRef, i32, i32, ptr, i32, i16, i16, i16, i16, i16, i16, i16, i8, i8, i8, i8 }
%struct.GCRef = type { i64 }
%struct.MRef = type { i64 }
%struct.IRType1 = type { i8 }
%struct.FoldState = type { %union.IRIns, [2 x %union.IRIns], [2 x %union.IRIns] }
%union.IRIns = type { %struct.GCRef }
%struct.HotPenalty = type { %struct.MRef, i16, i16 }
%struct.BPropEntry = type { i16, i16, i32 }
%struct.ScEvEntry = type { %struct.MRef, i16, i16, i16, i16, %struct.IRType1, i8 }
%union.TValue = type { i64 }
%struct.anon.1 = type { i16, i16, i16, i16 }
%struct.anon.2 = type { i32, %struct.IRType1, i8, i8, i8 }

; Function Attrs: alwaysinline nounwind uwtable
define internal void @lj_ir_set_(ptr noundef %0, i16 noundef zeroext %1, i16 noundef zeroext %2, i16 noundef zeroext %3) #3 {
  %5 = alloca ptr, align 8
  %6 = alloca i16, align 2
  %7 = alloca i16, align 2
  %8 = alloca i16, align 2
  store ptr %0, ptr %5, align 8, !tbaa !4
  store i16 %1, ptr %6, align 2, !tbaa !13
  store i16 %2, ptr %7, align 2, !tbaa !13
  store i16 %3, ptr %8, align 2, !tbaa !13
  %9 = load i16, ptr %6, align 2, !tbaa !13
  %10 = load ptr, ptr %5, align 8, !tbaa !4
  %11 = getelementptr inbounds nuw %struct.jit_State, ptr %10, i32 0, i32 14
  %12 = getelementptr inbounds nuw %struct.FoldState, ptr %11, i32 0, i32 0
  %13 = getelementptr inbounds nuw %struct.anon.1, ptr %12, i32 0, i32 2
  store i16 %9, ptr %13, align 4, !tbaa !15
  %14 = load i16, ptr %7, align 2, !tbaa !13
  %15 = load ptr, ptr %5, align 8, !tbaa !4
  %16 = getelementptr inbounds nuw %struct.jit_State, ptr %15, i32 0, i32 14
  %17 = getelementptr inbounds nuw %struct.FoldState, ptr %16, i32 0, i32 0
  %18 = getelementptr inbounds nuw %struct.anon.1, ptr %17, i32 0, i32 0
  store i16 %14, ptr %18, align 8, !tbaa !15
  %19 = load i16, ptr %8, align 2, !tbaa !13
  %20 = load ptr, ptr %5, align 8, !tbaa !4
  %21 = getelementptr inbounds nuw %struct.jit_State, ptr %20, i32 0, i32 14
  %22 = getelementptr inbounds nuw %struct.FoldState, ptr %21, i32 0, i32 0
  %23 = getelementptr inbounds nuw %struct.anon.1, ptr %22, i32 0, i32 1
  store i16 %19, ptr %23, align 2, !tbaa !15
  ret void
}

; Function Attrs: nounwind uwtable
define internal void @canonicalize_slots(ptr noundef %0) #0 {
  %2 = alloca ptr, align 8
  %3 = alloca i32, align 4
  %4 = alloca i32, align 4
  %5 = alloca ptr, align 8
  store ptr %0, ptr %2, align 8, !tbaa !4
  call void @llvm.lifetime.start.p0(i64 4, ptr %3) #9
  %6 = load ptr, ptr %2, align 8, !tbaa !4
  %7 = getelementptr inbounds nuw %struct.jit_State, ptr %6, i32 0, i32 9
  %8 = load i32, ptr %7, align 8, !tbaa !43
  %9 = load ptr, ptr %2, align 8, !tbaa !4
  %10 = getelementptr inbounds nuw %struct.jit_State, ptr %9, i32 0, i32 8
  %11 = load i32, ptr %10, align 4, !tbaa !44
  %12 = add i32 %8, %11
  %13 = sub i32 %12, 1
  store i32 %13, ptr %3, align 4, !tbaa !9
  br label %14

14:                                               ; preds = %67, %1
  %15 = load i32, ptr %3, align 4, !tbaa !9
  %16 = icmp uge i32 %15, 1
  br i1 %16, label %17, label %70

17:                                               ; preds = %14
  call void @llvm.lifetime.start.p0(i64 4, ptr %4) #9
  %18 = load ptr, ptr %2, align 8, !tbaa !4
  %19 = getelementptr inbounds nuw %struct.jit_State, ptr %18, i32 0, i32 41
  %20 = load i32, ptr %3, align 4, !tbaa !9
  %21 = zext i32 %20 to i64
  %22 = getelementptr inbounds nuw [258 x i32], ptr %19, i64 0, i64 %21
  %23 = load i32, ptr %22, align 4, !tbaa !9
  store i32 %23, ptr %4, align 4, !tbaa !9
  %24 = load i32, ptr %4, align 4, !tbaa !9
  %25 = lshr i32 %24, 24
  %26 = and i32 %25, 31
  %27 = sub i32 %26, 15
  %28 = icmp ule i32 %27, 4
  br i1 %28, label %29, label %66

29:                                               ; preds = %17
  %30 = load i32, ptr %4, align 4, !tbaa !9
  %31 = and i32 %30, 1048576
  %32 = icmp ne i32 %31, 0
  br i1 %32, label %66, label %33

33:                                               ; preds = %29
  call void @llvm.lifetime.start.p0(i64 8, ptr %5) #9
  %34 = load ptr, ptr %2, align 8, !tbaa !4
  %35 = getelementptr inbounds nuw %struct.jit_State, ptr %34, i32 0, i32 0
  %36 = getelementptr inbounds nuw %struct.GCtrace, ptr %35, i32 0, i32 7
  %37 = load ptr, ptr %36, align 8, !tbaa !45
  %38 = load i32, ptr %4, align 4, !tbaa !9
  %39 = trunc i32 %38 to i16
  %40 = zext i16 %39 to i64
  %41 = getelementptr inbounds nuw %union.IRIns, ptr %37, i64 %40
  store ptr %41, ptr %5, align 8, !tbaa !46
  %42 = load ptr, ptr %5, align 8, !tbaa !46
  %43 = getelementptr inbounds nuw %struct.anon.2, ptr %42, i32 0, i32 2
  %44 = load i8, ptr %43, align 1, !tbaa !15
  %45 = zext i8 %44 to i32
  %46 = icmp eq i32 %45, 71
  br i1 %46, label %47, label %54

47:                                               ; preds = %33
  %48 = load ptr, ptr %5, align 8, !tbaa !46
  %49 = getelementptr inbounds nuw %struct.anon.1, ptr %48, i32 0, i32 1
  %50 = load i16, ptr %49, align 2, !tbaa !15
  %51 = zext i16 %50 to i32
  %52 = and i32 %51, 16
  %53 = icmp ne i32 %52, 0
  br i1 %53, label %65, label %54

54:                                               ; preds = %47, %33
  %55 = load ptr, ptr %2, align 8, !tbaa !4
  %56 = load i32, ptr %4, align 4, !tbaa !9
  %57 = trunc i32 %56 to i16
  call void @lj_ir_set_(ptr noundef %55, i16 noundef zeroext 23310, i16 noundef zeroext %57, i16 noundef zeroext 467)
  %58 = load ptr, ptr %2, align 8, !tbaa !4
  %59 = call i32 @lj_opt_fold(ptr noundef %58)
  %60 = load ptr, ptr %2, align 8, !tbaa !4
  %61 = getelementptr inbounds nuw %struct.jit_State, ptr %60, i32 0, i32 41
  %62 = load i32, ptr %3, align 4, !tbaa !9
  %63 = zext i32 %62 to i64
  %64 = getelementptr inbounds nuw [258 x i32], ptr %61, i64 0, i64 %63
  store i32 %59, ptr %64, align 4, !tbaa !9
  br label %65

65:                                               ; preds = %54, %47
  call void @llvm.lifetime.end.p0(i64 8, ptr %5) #9
  br label %66

66:                                               ; preds = %65, %29, %17
  call void @llvm.lifetime.end.p0(i64 4, ptr %4) #9
  br label %67

67:                                               ; preds = %66
  %68 = load i32, ptr %3, align 4, !tbaa !9
  %69 = add i32 %68, -1
  store i32 %69, ptr %3, align 4, !tbaa !9
  br label %14, !llvm.loop !47

70:                                               ; preds = %14
  call void @llvm.lifetime.end.p0(i64 4, ptr %3) #9
  ret void
}

; Function Attrs: nounwind uwtable
define hidden void @lj_record_stop(ptr noundef %0, i32 noundef %1, i32 noundef %2) #0 {
  %4 = alloca ptr, align 8
  %5 = alloca i32, align 4
  %6 = alloca i32, align 4
  store ptr %0, ptr %4, align 8, !tbaa !4
  store i32 %1, ptr %5, align 4, !tbaa !9
  store i32 %2, ptr %6, align 4, !tbaa !9
  %7 = load ptr, ptr %4, align 8, !tbaa !4
  %8 = getelementptr inbounds nuw %struct.jit_State, ptr %7, i32 0, i32 17
  store i32 20, ptr %8, align 4, !tbaa !16
  %9 = load i32, ptr %5, align 4, !tbaa !9
  %10 = trunc i32 %9 to i8
  %11 = load ptr, ptr %4, align 8, !tbaa !4
  %12 = getelementptr inbounds nuw %struct.jit_State, ptr %11, i32 0, i32 0
  %13 = getelementptr inbounds nuw %struct.GCtrace, ptr %12, i32 0, i32 27
  store i8 %10, ptr %13, align 4, !tbaa !34
  %14 = load i32, ptr %6, align 4, !tbaa !9
  %15 = trunc i32 %14 to i16
  %16 = load ptr, ptr %4, align 8, !tbaa !4
  %17 = getelementptr inbounds nuw %struct.jit_State, ptr %16, i32 0, i32 0
  %18 = getelementptr inbounds nuw %struct.GCtrace, ptr %17, i32 0, i32 21
  store i16 %15, ptr %18, align 2, !tbaa !35
  %19 = load i32, ptr %6, align 4, !tbaa !9
  %20 = load ptr, ptr %4, align 8, !tbaa !4
  %21 = getelementptr inbounds nuw %struct.jit_State, ptr %20, i32 0, i32 0
  %22 = getelementptr inbounds nuw %struct.GCtrace, ptr %21, i32 0, i32 20
  %23 = load i16, ptr %22, align 8, !tbaa !36
  %24 = zext i16 %23 to i32
  %25 = icmp eq i32 %19, %24
  br i1 %25, label %26, label %57

26:                                               ; preds = %3
  %27 = load ptr, ptr %4, align 8, !tbaa !4
  %28 = getelementptr inbounds nuw %struct.jit_State, ptr %27, i32 0, i32 21
  %29 = load i32, ptr %28, align 4, !tbaa !37
  %30 = load ptr, ptr %4, align 8, !tbaa !4
  %31 = getelementptr inbounds nuw %struct.jit_State, ptr %30, i32 0, i32 22
  %32 = load i32, ptr %31, align 8, !tbaa !38
  %33 = add nsw i32 %29, %32
  %34 = icmp eq i32 %33, 0
  br i1 %34, label %35, label %57

35:                                               ; preds = %26
  %36 = load ptr, ptr %4, align 8, !tbaa !4
  %37 = getelementptr inbounds nuw %struct.jit_State, ptr %36, i32 0, i32 7
  %38 = load i32, ptr %37, align 8, !tbaa !39
  %39 = and i32 %38, 4194304
  %40 = icmp ne i32 %39, 0
  br i1 %40, label %41, label %42

41:                                               ; preds = %35
  br label %59

42:                                               ; preds = %35
  %43 = load ptr, ptr %4, align 8, !tbaa !4
  %44 = getelementptr inbounds nuw %struct.jit_State, ptr %43, i32 0, i32 0
  %45 = getelementptr inbounds nuw %struct.GCtrace, ptr %44, i32 0, i32 22
  %46 = load i16, ptr %45, align 4, !tbaa !40
  %47 = icmp ne i16 %46, 0
  br i1 %47, label %48, label %56

48:                                               ; preds = %42
  %49 = load ptr, ptr %4, align 8, !tbaa !4
  %50 = getelementptr inbounds nuw %struct.jit_State, ptr %49, i32 0, i32 0
  %51 = getelementptr inbounds nuw %struct.GCtrace, ptr %50, i32 0, i32 22
  %52 = load i16, ptr %51, align 4, !tbaa !40
  %53 = load ptr, ptr %4, align 8, !tbaa !4
  %54 = getelementptr inbounds nuw %struct.jit_State, ptr %53, i32 0, i32 0
  %55 = getelementptr inbounds nuw %struct.GCtrace, ptr %54, i32 0, i32 21
  store i16 %52, ptr %55, align 2, !tbaa !35
  br label %56

56:                                               ; preds = %48, %42
  br label %57

57:                                               ; preds = %56, %26, %3
  %58 = load ptr, ptr %4, align 8, !tbaa !4
  call void @canonicalize_slots(ptr noundef %58)
  br label %59

59:                                               ; preds = %57, %41
  %60 = load ptr, ptr %4, align 8, !tbaa !4
  call void @lj_snap_add(ptr noundef %60)
  %61 = load ptr, ptr %4, align 8, !tbaa !4
  %62 = getelementptr inbounds nuw %struct.jit_State, ptr %61, i32 0, i32 11
  store i8 0, ptr %62, align 1, !tbaa !41
  %63 = load ptr, ptr %4, align 8, !tbaa !4
  %64 = getelementptr inbounds nuw %struct.jit_State, ptr %63, i32 0, i32 10
  store i8 1, ptr %64, align 4, !tbaa !42
  ret void
}