; Function Attrs: nounwind uwtable
define hidden void @lj_record_stop(ptr noundef initializes((106, 108), (116, 117), (236, 240)) %0, i32 noundef %1, i32 noundef %2) local_unnamed_addr #0 {
  %4 = getelementptr inbounds nuw i8, ptr %0, i64 236
  store i32 20, ptr %4, align 4, !tbaa !7
  %5 = trunc i32 %1 to i8
  %6 = getelementptr inbounds nuw i8, ptr %0, i64 116
  store i8 %5, ptr %6, align 4, !tbaa !28
  %7 = trunc i32 %2 to i16
  %8 = getelementptr inbounds nuw i8, ptr %0, i64 106
  store i16 %7, ptr %8, align 2, !tbaa !29
  %9 = getelementptr inbounds nuw i8, ptr %0, i64 104
  %10 = load i16, ptr %9, align 8, !tbaa !30
  %11 = zext i16 %10 to i32
  %12 = icmp eq i32 %2, %11
  br i1 %12, label %13, label %28

13:                                               ; preds = %3
  %14 = getelementptr inbounds nuw i8, ptr %0, i64 252
  %15 = load i32, ptr %14, align 4, !tbaa !31
  %16 = getelementptr inbounds nuw i8, ptr %0, i64 256
  %17 = load i32, ptr %16, align 8, !tbaa !32
  %18 = sub i32 0, %17
  %19 = icmp eq i32 %15, %18
  br i1 %19, label %20, label %28

20:                                               ; preds = %13
  %21 = getelementptr inbounds nuw i8, ptr %0, i64 168
  %22 = load i32, ptr %21, align 8, !tbaa !33
  %23 = and i32 %22, 4194304
  %.not = icmp eq i32 %23, 0
  br i1 %.not, label %24, label %canonicalize_slots.exit

24:                                               ; preds = %20
  %25 = getelementptr inbounds nuw i8, ptr %0, i64 108
  %26 = load i16, ptr %25, align 4, !tbaa !34
  %.not16 = icmp eq i16 %26, 0
  br i1 %.not16, label %28, label %27

27:                                               ; preds = %24
  store i16 %26, ptr %8, align 2, !tbaa !29
  br label %28

28:                                               ; preds = %24, %27, %13, %3
  %29 = getelementptr inbounds nuw i8, ptr %0, i64 176
  %30 = load i32, ptr %29, align 8, !tbaa !35
  %31 = getelementptr inbounds nuw i8, ptr %0, i64 172
  %32 = load i32, ptr %31, align 4, !tbaa !36
  %33 = add i32 %30, -1
  %.018.i = add i32 %33, %32
  %.not19.i = icmp eq i32 %.018.i, 0
  br i1 %.not19.i, label %canonicalize_slots.exit, label %.lr.ph.i

.lr.ph.i:                                         ; preds = %28
  %34 = getelementptr inbounds nuw i8, ptr %0, i64 604
  %35 = getelementptr inbounds nuw i8, ptr %0, i64 32
  %36 = getelementptr inbounds nuw i8, ptr %0, i64 184
  %37 = getelementptr inbounds nuw i8, ptr %0, i64 188
  %38 = getelementptr inbounds nuw i8, ptr %0, i64 186
  %39 = zext i32 %.018.i to i64
  br label %40

40:                                               ; preds = %62, %.lr.ph.i
  %indvars.iv.i = phi i64 [ %39, %.lr.ph.i ], [ %indvars.iv.next.i, %62 ]
  %41 = getelementptr inbounds nuw [258 x i32], ptr %34, i64 0, i64 %indvars.iv.i
  %42 = load i32, ptr %41, align 4, !tbaa !37
  %43 = lshr i32 %42, 24
  %44 = and i32 %43, 31
  %45 = add nsw i32 %44, -15
  %46 = icmp ult i32 %45, 5
  %47 = and i32 %42, 1048576
  %.not16.i = icmp eq i32 %47, 0
  %or.cond.i = and i1 %.not16.i, %46
  br i1 %or.cond.i, label %48, label %62

48:                                               ; preds = %40
  %49 = load ptr, ptr %35, align 8, !tbaa !38
  %50 = trunc i32 %42 to i16
  %.mask.i = and i32 %42, 65535
  %51 = zext nneg i32 %.mask.i to i64
  %52 = getelementptr inbounds nuw %union.IRIns, ptr %49, i64 %51
  %53 = getelementptr inbounds nuw i8, ptr %52, i64 5
  %54 = load i8, ptr %53, align 1, !tbaa !4
  %55 = icmp eq i8 %54, 71
  br i1 %55, label %56, label %60

56:                                               ; preds = %48
  %57 = getelementptr inbounds nuw i8, ptr %52, i64 2
  %58 = load i16, ptr %57, align 2, !tbaa !4
  %59 = and i16 %58, 16
  %.not17.i = icmp eq i16 %59, 0
  br i1 %.not17.i, label %60, label %62

60:                                               ; preds = %56, %48
  store i16 23310, ptr %37, align 4, !tbaa !4
  store i16 %50, ptr %36, align 8, !tbaa !4
  store i16 467, ptr %38, align 2, !tbaa !4
  %61 = tail call i32 @lj_opt_fold(ptr noundef nonnull %0) #8
  store i32 %61, ptr %41, align 4, !tbaa !37
  br label %62

62:                                               ; preds = %60, %56, %40
  %indvars.iv.next.i = add nsw i64 %indvars.iv.i, -1
  %63 = and i64 %indvars.iv.next.i, 4294967295
  %.not.i = icmp eq i64 %63, 0
  br i1 %.not.i, label %canonicalize_slots.exit, label %40, !llvm.loop !39

canonicalize_slots.exit:                          ; preds = %62, %28, %20
  tail call void @lj_snap_add(ptr noundef nonnull %0) #8
  %64 = getelementptr inbounds nuw i8, ptr %0, i64 181
  store i8 0, ptr %64, align 1, !tbaa !41
  %65 = getelementptr inbounds nuw i8, ptr %0, i64 180
  store i8 1, ptr %65, align 4, !tbaa !42
  ret void
}